; Function Attrs: nofree norecurse nosync nounwind memory(readwrite, inaccessiblemem: none) uwtable
define internal void @mix6to2_double(ptr noundef readonly captures(none) %0, ptr noundef readonly captures(none) %1, ptr noundef readonly captures(none) %2, i32 noundef %3) #9 {
  %5 = icmp sgt i32 %3, 0
  br i1 %5, label %.lr.ph, label %._crit_edge

.lr.ph:                                           ; preds = %4
  %6 = getelementptr inbounds nuw i8, ptr %1, i64 16
  %7 = load ptr, ptr %6, align 8, !tbaa !115
  %8 = getelementptr inbounds nuw i8, ptr %2, i64 16
  %9 = getelementptr inbounds nuw i8, ptr %1, i64 24
  %10 = load ptr, ptr %9, align 8, !tbaa !115
  %11 = getelementptr inbounds nuw i8, ptr %2, i64 24
  %12 = load ptr, ptr %1, align 8, !tbaa !115
  %13 = getelementptr inbounds nuw i8, ptr %1, i64 32
  %14 = load ptr, ptr %13, align 8, !tbaa !115
  %15 = getelementptr inbounds nuw i8, ptr %2, i64 32
  %16 = load ptr, ptr %0, align 8, !tbaa !115
  %17 = getelementptr inbounds nuw i8, ptr %1, i64 8
  %18 = load ptr, ptr %17, align 8, !tbaa !115
  %19 = getelementptr inbounds nuw i8, ptr %2, i64 56
  %20 = getelementptr inbounds nuw i8, ptr %1, i64 40
  %21 = load ptr, ptr %20, align 8, !tbaa !115
  %22 = getelementptr inbounds nuw i8, ptr %2, i64 88
  %23 = getelementptr inbounds nuw i8, ptr %0, i64 8
  %24 = load ptr, ptr %23, align 8, !tbaa !115
  %wide.trip.count = zext nneg i32 %3 to i64
  br label %25

25:                                               ; preds = %.lr.ph, %25
  %indvars.iv = phi i64 [ 0, %.lr.ph ], [ %indvars.iv.next, %25 ]
  %26 = getelementptr inbounds nuw double, ptr %7, i64 %indvars.iv
  %27 = load double, ptr %26, align 8, !tbaa !24
  %28 = load double, ptr %8, align 8, !tbaa !24
  %29 = getelementptr inbounds nuw double, ptr %10, i64 %indvars.iv
  %30 = load double, ptr %29, align 8, !tbaa !24
  %31 = load double, ptr %11, align 8, !tbaa !24
  %32 = fmul nsz double %30, %31
  %33 = tail call nsz double @llvm.fmuladd.f64(double %27, double %28, double %32)
  %34 = getelementptr inbounds nuw double, ptr %12, i64 %indvars.iv
  %35 = load double, ptr %34, align 8, !tbaa !24
  %36 = load double, ptr %2, align 8, !tbaa !24
  %37 = tail call nsz double @llvm.fmuladd.f64(double %35, double %36, double %33)
  %38 = getelementptr inbounds nuw double, ptr %14, i64 %indvars.iv
  %39 = load double, ptr %38, align 8, !tbaa !24
  %40 = load double, ptr %15, align 8, !tbaa !24
  %41 = tail call nsz double @llvm.fmuladd.f64(double %39, double %40, double %37)
  %42 = getelementptr inbounds nuw double, ptr %16, i64 %indvars.iv
  store double %41, ptr %42, align 8, !tbaa !24
  %43 = getelementptr inbounds nuw double, ptr %18, i64 %indvars.iv
  %44 = load double, ptr %43, align 8, !tbaa !24
  %45 = load double, ptr %19, align 8, !tbaa !24
  %46 = tail call nsz double @llvm.fmuladd.f64(double %44, double %45, double %33)
  %47 = getelementptr inbounds nuw double, ptr %21, i64 %indvars.iv
  %48 = load double, ptr %47, align 8, !tbaa !24
  %49 = load double, ptr %22, align 8, !tbaa !24
  %50 = tail call nsz double @llvm.fmuladd.f64(double %48, double %49, double %46)
  %51 = getelementptr inbounds nuw double, ptr %24, i64 %indvars.iv
  store double %50, ptr %51, align 8, !tbaa !24
  %indvars.iv.next = add nuw nsw i64 %indvars.iv, 1
  %exitcond.not = icmp eq i64 %indvars.iv.next, %wide.trip.count
  br i1 %exitcond.not, label %._crit_edge, label %25, !llvm.loop !117

._crit_edge:                                      ; preds = %25, %4
  ret void
}